target datalayout = "e-m:e-p270:32:32-p271:32:32-p272:64:64-i64:64-i128:128-f80:128-n8:16:32:64-S128"
target triple = "x86_64-pc-linux-gnu"

%struct.Vec_Wrd_t_ = type { i32, i32, ptr }
%struct.timespec = type { i64, i64 }

@.str.20 = private unnamed_addr constant [35 x i8] c"Density of output patterns %8.4f.\0A\00", align 1
@.str.21 = private unnamed_addr constant [35 x i8] c"Density of input  patterns %8.4f.\0A\00", align 1
@.str.22 = private unnamed_addr constant [5 x i8] c"Time\00", align 1
@.str.40 = private unnamed_addr constant [3 x i8] c"wb\00", align 1
@.str.41 = private unnamed_addr constant [36 x i8] c"Cannot open file \22%s\22 for writing.\0A\00", align 1
@.str.42 = private unnamed_addr constant [31 x i8] c"Error reading data from file.\0A\00", align 1
@.str.43 = private unnamed_addr constant [53 x i8] c"Written %d words of simulation data into file \22%s\22.\0A\00", align 1
@.str.46 = private unnamed_addr constant [5 x i8] c"%s =\00", align 1
@.str.47 = private unnamed_addr constant [11 x i8] c"%9.2f sec\0A\00", align 1

; Function Attrs: inlinehint nounwind uwtable
define internal i32 @Abc_TtCountOnes(i64 noundef %0) #3 {
  %2 = alloca i64, align 8
  store i64 %0, ptr %2, align 8, !tbaa !79
  %3 = load i64, ptr %2, align 8, !tbaa !79
  %4 = load i64, ptr %2, align 8, !tbaa !79
  %5 = lshr i64 %4, 1
  %6 = and i64 %5, 6148914691236517205
  %7 = sub i64 %3, %6
  store i64 %7, ptr %2, align 8, !tbaa !79
  %8 = load i64, ptr %2, align 8, !tbaa !79
  %9 = and i64 %8, 3689348814741910323
  %10 = load i64, ptr %2, align 8, !tbaa !79
  %11 = lshr i64 %10, 2
  %12 = and i64 %11, 3689348814741910323
  %13 = add i64 %9, %12
  store i64 %13, ptr %2, align 8, !tbaa !79
  %14 = load i64, ptr %2, align 8, !tbaa !79
  %15 = load i64, ptr %2, align 8, !tbaa !79
  %16 = lshr i64 %15, 4
  %17 = add i64 %14, %16
  %18 = and i64 %17, 1085102592571150095
  store i64 %18, ptr %2, align 8, !tbaa !79
  %19 = load i64, ptr %2, align 8, !tbaa !79
  %20 = load i64, ptr %2, align 8, !tbaa !79
  %21 = lshr i64 %20, 8
  %22 = add i64 %19, %21
  store i64 %22, ptr %2, align 8, !tbaa !79
  %23 = load i64, ptr %2, align 8, !tbaa !79
  %24 = load i64, ptr %2, align 8, !tbaa !79
  %25 = lshr i64 %24, 16
  %26 = add i64 %23, %25
  store i64 %26, ptr %2, align 8, !tbaa !79
  %27 = load i64, ptr %2, align 8, !tbaa !79
  %28 = load i64, ptr %2, align 8, !tbaa !79
  %29 = lshr i64 %28, 32
  %30 = add i64 %27, %29
  store i64 %30, ptr %2, align 8, !tbaa !79
  %31 = load i64, ptr %2, align 8, !tbaa !79
  %32 = and i64 %31, 255
  %33 = trunc i64 %32 to i32
  ret i32 %33
}

; Function Attrs: inlinehint nounwind uwtable
define internal i32 @Abc_TtCountOnes2(i64 noundef %0) #3 {
  %2 = alloca i64, align 8
  store i64 %0, ptr %2, align 8, !tbaa !79
  %3 = load i64, ptr %2, align 8, !tbaa !79
  %4 = icmp ne i64 %3, 0
  br i1 %4, label %5, label %8

5:                                                ; preds = %1
  %6 = load i64, ptr %2, align 8, !tbaa !79
  %7 = call i32 @Abc_TtCountOnes(i64 noundef %6)
  br label %9

8:                                                ; preds = %1
  br label %9

9:                                                ; preds = %8, %5
  %10 = phi i32 [ %7, %5 ], [ 0, %8 ]
  ret i32 %10
}

; Function Attrs: inlinehint nounwind uwtable
define internal void @Abc_PrintTime(i32 noundef %0, ptr noundef %1, i64 noundef %2) #3 {
  %4 = alloca i32, align 4
  %5 = alloca ptr, align 8
  %6 = alloca i64, align 8
  store i32 %0, ptr %4, align 4, !tbaa !14
  store ptr %1, ptr %5, align 8, !tbaa !3
  store i64 %2, ptr %6, align 8, !tbaa !79
  %7 = load ptr, ptr %5, align 8, !tbaa !3
  call void (i32, ptr, ...) @Abc_Print(i32 noundef 1, ptr noundef @.str.46, ptr noundef %7)
  %8 = load i64, ptr %6, align 8, !tbaa !79
  %9 = sitofp i64 %8 to double
  %10 = fmul double 1.000000e+00, %9
  %11 = fdiv double %10, 1.000000e+06
  call void (i32, ptr, ...) @Abc_Print(i32 noundef 1, ptr noundef @.str.47, double noundef %11)
  ret void
}

; Function Attrs: inlinehint nounwind uwtable
define internal void @Vec_WrdFree(ptr noundef %0) #3 {
  %2 = alloca ptr, align 8
  store ptr %0, ptr %2, align 8, !tbaa !71
  %3 = load ptr, ptr %2, align 8, !tbaa !71
  %4 = getelementptr inbounds nuw %struct.Vec_Wrd_t_, ptr %3, i32 0, i32 2
  %5 = load ptr, ptr %4, align 8, !tbaa !78
  %6 = icmp ne ptr %5, null
  br i1 %6, label %7, label %13

7:                                                ; preds = %1
  %8 = load ptr, ptr %2, align 8, !tbaa !71
  %9 = getelementptr inbounds nuw %struct.Vec_Wrd_t_, ptr %8, i32 0, i32 2
  %10 = load ptr, ptr %9, align 8, !tbaa !78
  call void @free(ptr noundef %10) #13
  %11 = load ptr, ptr %2, align 8, !tbaa !71
  %12 = getelementptr inbounds nuw %struct.Vec_Wrd_t_, ptr %11, i32 0, i32 2
  store ptr null, ptr %12, align 8, !tbaa !78
  br label %14

13:                                               ; preds = %1
  br label %14

14:                                               ; preds = %13, %7
  %15 = load ptr, ptr %2, align 8, !tbaa !71
  %16 = icmp ne ptr %15, null
  br i1 %16, label %17, label %19

17:                                               ; preds = %14
  %18 = load ptr, ptr %2, align 8, !tbaa !71
  call void @free(ptr noundef %18) #13
  store ptr null, ptr %2, align 8, !tbaa !71
  br label %20

19:                                               ; preds = %14
  br label %20

20:                                               ; preds = %19, %17
  ret void
}

; Function Attrs: inlinehint nounwind uwtable
define internal void @Vec_WrdDumpBin(ptr noundef %0, ptr noundef %1, i32 noundef %2) #3 {
  %4 = alloca ptr, align 8
  %5 = alloca ptr, align 8
  %6 = alloca i32, align 4
  %7 = alloca i32, align 4
  %8 = alloca ptr, align 8
  %9 = alloca i32, align 4
  store ptr %0, ptr %4, align 8, !tbaa !3
  store ptr %1, ptr %5, align 8, !tbaa !71
  store i32 %2, ptr %6, align 4, !tbaa !14
  call void @llvm.lifetime.start.p0(i64 4, ptr %7) #13
  call void @llvm.lifetime.start.p0(i64 8, ptr %8) #13
  %10 = load ptr, ptr %4, align 8, !tbaa !3
  %11 = call noalias ptr @fopen(ptr noundef %10, ptr noundef @.str.40)
  store ptr %11, ptr %8, align 8, !tbaa !10
  %12 = load ptr, ptr %8, align 8, !tbaa !10
  %13 = icmp eq ptr %12, null
  br i1 %13, label %14, label %17

14:                                               ; preds = %3
  %15 = load ptr, ptr %4, align 8, !tbaa !3
  %16 = call i32 (ptr, ...) @printf(ptr noundef @.str.41, ptr noundef %15)
  store i32 1, ptr %9, align 4
  br label %45

17:                                               ; preds = %3
  %18 = load ptr, ptr %5, align 8, !tbaa !71
  %19 = call ptr @Vec_WrdArray(ptr noundef %18)
  %20 = load ptr, ptr %5, align 8, !tbaa !71
  %21 = call i32 @Vec_WrdSize(ptr noundef %20)
  %22 = mul nsw i32 8, %21
  %23 = sext i32 %22 to i64
  %24 = load ptr, ptr %8, align 8, !tbaa !10
  %25 = call i64 @fwrite(ptr noundef %19, i64 noundef 1, i64 noundef %23, ptr noundef %24)
  %26 = trunc i64 %25 to i32
  store i32 %26, ptr %7, align 4, !tbaa !14
  %27 = load ptr, ptr %8, align 8, !tbaa !10
  %28 = call i32 @fclose(ptr noundef %27)
  %29 = load i32, ptr %7, align 4, !tbaa !14
  %30 = load ptr, ptr %5, align 8, !tbaa !71
  %31 = call i32 @Vec_WrdSize(ptr noundef %30)
  %32 = mul nsw i32 8, %31
  %33 = icmp ne i32 %29, %32
  br i1 %33, label %34, label %36

34:                                               ; preds = %17
  %35 = call i32 (ptr, ...) @printf(ptr noundef @.str.42)
  br label %36

36:                                               ; preds = %34, %17
  %37 = load i32, ptr %6, align 4, !tbaa !14
  %38 = icmp ne i32 %37, 0
  br i1 %38, label %39, label %44

39:                                               ; preds = %36
  %40 = load ptr, ptr %5, align 8, !tbaa !71
  %41 = call i32 @Vec_WrdSize(ptr noundef %40)
  %42 = load ptr, ptr %4, align 8, !tbaa !3
  %43 = call i32 (ptr, ...) @printf(ptr noundef @.str.43, i32 noundef %41, ptr noundef %42)
  br label %44

44:                                               ; preds = %39, %36
  store i32 0, ptr %9, align 4
  br label %45

45:                                               ; preds = %44, %14
  call void @llvm.lifetime.end.p0(i64 8, ptr %8) #13
  call void @llvm.lifetime.end.p0(i64 4, ptr %7) #13
  %46 = load i32, ptr %9, align 4
  switch i32 %46, label %48 [
    i32 0, label %47
    i32 1, label %47
  ]

47:                                               ; preds = %45, %45
  ret void

48:                                               ; preds = %45
  unreachable
}

; Function Attrs: inlinehint nounwind uwtable
define internal i32 @Abc_TtCountOnesVec(ptr noundef %0, i32 noundef %1) #3 {
  %3 = alloca ptr, align 8
  %4 = alloca i32, align 4
  %5 = alloca i32, align 4
  %6 = alloca i32, align 4
  store ptr %0, ptr %3, align 8, !tbaa !30
  store i32 %1, ptr %4, align 4, !tbaa !14
  call void @llvm.lifetime.start.p0(i64 4, ptr %5) #13
  call void @llvm.lifetime.start.p0(i64 4, ptr %6) #13
  store i32 0, ptr %6, align 4, !tbaa !14
  store i32 0, ptr %5, align 4, !tbaa !14
  br label %7

7:                                                ; preds = %20, %2
  %8 = load i32, ptr %5, align 4, !tbaa !14
  %9 = load i32, ptr %4, align 4, !tbaa !14
  %10 = icmp slt i32 %8, %9
  br i1 %10, label %11, label %23

11:                                               ; preds = %7
  %12 = load ptr, ptr %3, align 8, !tbaa !30
  %13 = load i32, ptr %5, align 4, !tbaa !14
  %14 = sext i32 %13 to i64
  %15 = getelementptr inbounds i64, ptr %12, i64 %14
  %16 = load i64, ptr %15, align 8, !tbaa !79
  %17 = call i32 @Abc_TtCountOnes2(i64 noundef %16)
  %18 = load i32, ptr %6, align 4, !tbaa !14
  %19 = add nsw i32 %18, %17
  store i32 %19, ptr %6, align 4, !tbaa !14
  br label %20

20:                                               ; preds = %11
  %21 = load i32, ptr %5, align 4, !tbaa !14
  %22 = add nsw i32 %21, 1
  store i32 %22, ptr %5, align 4, !tbaa !14
  br label %7, !llvm.loop !93

23:                                               ; preds = %7
  %24 = load i32, ptr %6, align 4, !tbaa !14
  call void @llvm.lifetime.end.p0(i64 4, ptr %6) #13
  call void @llvm.lifetime.end.p0(i64 4, ptr %5) #13
  ret i32 %24
}

; Function Attrs: inlinehint nounwind uwtable
define internal i32 @Vec_WrdSize(ptr noundef %0) #3 {
  %2 = alloca ptr, align 8
  store ptr %0, ptr %2, align 8, !tbaa !71
  %3 = load ptr, ptr %2, align 8, !tbaa !71
  %4 = getelementptr inbounds nuw %struct.Vec_Wrd_t_, ptr %3, i32 0, i32 1
  %5 = load i32, ptr %4, align 4, !tbaa !76
  ret i32 %5
}

; Function Attrs: inlinehint nounwind uwtable
define internal ptr @Vec_WrdArray(ptr noundef %0) #3 {
  %2 = alloca ptr, align 8
  store ptr %0, ptr %2, align 8, !tbaa !71
  %3 = load ptr, ptr %2, align 8, !tbaa !71
  %4 = getelementptr inbounds nuw %struct.Vec_Wrd_t_, ptr %3, i32 0, i32 2
  %5 = load ptr, ptr %4, align 8, !tbaa !78
  ret ptr %5
}

; Function Attrs: inlinehint nounwind uwtable
define internal i64 @Abc_Clock() #3 {
  %1 = alloca i64, align 8
  %2 = alloca %struct.timespec, align 8
  %3 = alloca i32, align 4
  %4 = alloca i64, align 8
  call void @llvm.lifetime.start.p0(i64 16, ptr %2) #13
  %5 = call i32 @clock_gettime(i32 noundef 1, ptr noundef %2) #13
  %6 = icmp slt i32 %5, 0
  br i1 %6, label %7, label %8

7:                                                ; preds = %0
  store i64 -1, ptr %1, align 8
  store i32 1, ptr %3, align 4
  br label %19

8:                                                ; preds = %0
  call void @llvm.lifetime.start.p0(i64 8, ptr %4) #13
  %9 = getelementptr inbounds nuw %struct.timespec, ptr %2, i32 0, i32 0
  %10 = load i64, ptr %9, align 8, !tbaa !198
  %11 = mul nsw i64 %10, 1000000
  store i64 %11, ptr %4, align 8, !tbaa !79
  %12 = getelementptr inbounds nuw %struct.timespec, ptr %2, i32 0, i32 1
  %13 = load i64, ptr %12, align 8, !tbaa !200
  %14 = mul nsw i64 %13, 1000000
  %15 = sdiv i64 %14, 1000000000
  %16 = load i64, ptr %4, align 8, !tbaa !79
  %17 = add nsw i64 %16, %15
  store i64 %17, ptr %4, align 8, !tbaa !79
  %18 = load i64, ptr %4, align 8, !tbaa !79
  store i64 %18, ptr %1, align 8
  store i32 1, ptr %3, align 4
  call void @llvm.lifetime.end.p0(i64 8, ptr %4) #13
  br label %19

19:                                               ; preds = %8, %7
  call void @llvm.lifetime.end.p0(i64 16, ptr %2) #13
  %20 = load i64, ptr %1, align 8
  ret i64 %20
}

; Function Attrs: nounwind uwtable
define void @Gia_ManSimInfoPassTest(ptr noundef %0, ptr noundef %1, ptr noundef %2, i32 noundef %3) #0 {
  %5 = alloca ptr, align 8
  %6 = alloca ptr, align 8
  %7 = alloca ptr, align 8
  %8 = alloca i32, align 4
  %9 = alloca i64, align 8
  %10 = alloca ptr, align 8
  %11 = alloca ptr, align 8
  store ptr %0, ptr %5, align 8, !tbaa !34
  store ptr %1, ptr %6, align 8, !tbaa !3
  store ptr %2, ptr %7, align 8, !tbaa !3
  store i32 %3, ptr %8, align 4, !tbaa !14
  call void @llvm.lifetime.start.p0(i64 8, ptr %9) #13
  %12 = call i64 @Abc_Clock()
  store i64 %12, ptr %9, align 8, !tbaa !79
  call void @llvm.lifetime.start.p0(i64 8, ptr %10) #13
  %13 = load ptr, ptr %6, align 8, !tbaa !3
  %14 = load i32, ptr %8, align 4, !tbaa !14
  %15 = call ptr @Vec_WrdReadBin(ptr noundef %13, i32 noundef %14)
  store ptr %15, ptr %10, align 8, !tbaa !71
  call void @llvm.lifetime.start.p0(i64 8, ptr %11) #13
  %16 = load ptr, ptr %5, align 8, !tbaa !34
  %17 = load ptr, ptr %10, align 8, !tbaa !71
  %18 = call ptr @Gia_ManSimInfoTry(ptr noundef %16, ptr noundef %17)
  store ptr %18, ptr %11, align 8, !tbaa !71
  %19 = load i32, ptr %8, align 4, !tbaa !14
  %20 = icmp ne i32 %19, 0
  br i1 %20, label %21, label %35

21:                                               ; preds = %4
  %22 = load ptr, ptr %10, align 8, !tbaa !71
  %23 = call ptr @Vec_WrdArray(ptr noundef %22)
  %24 = load ptr, ptr %10, align 8, !tbaa !71
  %25 = call i32 @Vec_WrdSize(ptr noundef %24)
  %26 = call i32 @Abc_TtCountOnesVec(ptr noundef %23, i32 noundef %25)
  %27 = sitofp i32 %26 to float
  %28 = load ptr, ptr %10, align 8, !tbaa !71
  %29 = call i32 @Vec_WrdSize(ptr noundef %28)
  %30 = mul nsw i32 64, %29
  %31 = sitofp i32 %30 to float
  %32 = fdiv float %27, %31
  %33 = fpext float %32 to double
  %34 = call i32 (ptr, ...) @printf(ptr noundef @.str.21, double noundef %33)
  br label %35

35:                                               ; preds = %21, %4
  %36 = load i32, ptr %8, align 4, !tbaa !14
  %37 = icmp ne i32 %36, 0
  br i1 %37, label %38, label %52

38:                                               ; preds = %35
  %39 = load ptr, ptr %11, align 8, !tbaa !71
  %40 = call ptr @Vec_WrdArray(ptr noundef %39)
  %41 = load ptr, ptr %11, align 8, !tbaa !71
  %42 = call i32 @Vec_WrdSize(ptr noundef %41)
  %43 = call i32 @Abc_TtCountOnesVec(ptr noundef %40, i32 noundef %42)
  %44 = sitofp i32 %43 to float
  %45 = load ptr, ptr %11, align 8, !tbaa !71
  %46 = call i32 @Vec_WrdSize(ptr noundef %45)
  %47 = mul nsw i32 64, %46
  %48 = sitofp i32 %47 to float
  %49 = fdiv float %44, %48
  %50 = fpext float %49 to double
  %51 = call i32 (ptr, ...) @printf(ptr noundef @.str.20, double noundef %50)
  br label %52

52:                                               ; preds = %38, %35
  %53 = load ptr, ptr %7, align 8, !tbaa !3
  %54 = load ptr, ptr %11, align 8, !tbaa !71
  %55 = load i32, ptr %8, align 4, !tbaa !14
  call void @Vec_WrdDumpBin(ptr noundef %53, ptr noundef %54, i32 noundef %55)
  %56 = load ptr, ptr %10, align 8, !tbaa !71
  call void @Vec_WrdFree(ptr noundef %56)
  %57 = load ptr, ptr %11, align 8, !tbaa !71
  call void @Vec_WrdFree(ptr noundef %57)
  %58 = load i32, ptr %8, align 4, !tbaa !14
  %59 = icmp ne i32 %58, 0
  br i1 %59, label %60, label %64

60:                                               ; preds = %52
  %61 = call i64 @Abc_Clock()
  %62 = load i64, ptr %9, align 8, !tbaa !79
  %63 = sub nsw i64 %61, %62
  call void @Abc_PrintTime(i32 noundef 1, ptr noundef @.str.22, i64 noundef %63)
  br label %64

64:                                               ; preds = %60, %52
  call void @llvm.lifetime.end.p0(i64 8, ptr %11) #13
  call void @llvm.lifetime.end.p0(i64 8, ptr %10) #13
  call void @llvm.lifetime.end.p0(i64 8, ptr %9) #13
  ret void
}