; Function Attrs: nounwind uwtable
define void @Gia_ManSimInfoPassTest(ptr noundef %0, ptr noundef %1, ptr noundef %2, i32 noundef %3) local_unnamed_addr #0 {
  %5 = alloca %struct.timespec, align 8
  %6 = alloca %struct.timespec, align 8
  call void @llvm.lifetime.start.p0(i64 16, ptr nonnull %6) #24
  %7 = call i32 @clock_gettime(i32 noundef 1, ptr noundef nonnull %6) #24
  %8 = icmp slt i32 %7, 0
  br i1 %8, label %Abc_Clock.exit, label %9

9:                                                ; preds = %4
  %10 = load i64, ptr %6, align 8, !tbaa !88
  %.neg47 = mul i64 %10, -1000000
  %11 = getelementptr inbounds nuw i8, ptr %6, i64 8
  %12 = load i64, ptr %11, align 8, !tbaa !90
  %.neg = sdiv i64 %12, -1000
  %.neg48 = add i64 %.neg, %.neg47
  br label %Abc_Clock.exit

Abc_Clock.exit:                                   ; preds = %4, %9
  %.0.i.neg = phi i64 [ %.neg48, %9 ], [ 1, %4 ]
  call void @llvm.lifetime.end.p0(i64 16, ptr nonnull %6) #24
  %13 = call fastcc ptr @Vec_WrdReadBin(ptr noundef %1, i32 noundef %3)
  %14 = call ptr @Gia_ManSimInfoTry(ptr noundef %0, ptr noundef %13)
  %.not = icmp eq i32 %3, 0
  br i1 %.not, label %.split, label %.split19

.split19:                                         ; preds = %Abc_Clock.exit
  %15 = getelementptr i8, ptr %13, i64 8
  %.val20 = load ptr, ptr %15, align 8, !tbaa !59
  %16 = getelementptr i8, ptr %13, i64 4
  %.val24 = load i32, ptr %16, align 4, !tbaa !60
  %17 = icmp sgt i32 %.val24, 0
  br i1 %17, label %.lr.ph.preheader.i, label %Abc_TtCountOnesVec.exit

.lr.ph.preheader.i:                               ; preds = %.split19
  %wide.trip.count.i = zext nneg i32 %.val24 to i64
  br label %.lr.ph.i

.lr.ph.i:                                         ; preds = %Abc_TtCountOnes2.exit.i, %.lr.ph.preheader.i
  %indvars.iv.i = phi i64 [ 0, %.lr.ph.preheader.i ], [ %indvars.iv.next.i, %Abc_TtCountOnes2.exit.i ]
  %.08.i = phi i32 [ 0, %.lr.ph.preheader.i ], [ %40, %Abc_TtCountOnes2.exit.i ]
  %18 = getelementptr inbounds nuw i64, ptr %.val20, i64 %indvars.iv.i
  %19 = load i64, ptr %18, align 8, !tbaa !62
  %.not.i.i = icmp eq i64 %19, 0
  br i1 %.not.i.i, label %Abc_TtCountOnes2.exit.i, label %20

20:                                               ; preds = %.lr.ph.i
  %21 = lshr i64 %19, 1
  %22 = and i64 %21, 6148914691236517205
  %23 = sub i64 %19, %22
  %24 = and i64 %23, 3689348814741910323
  %25 = lshr i64 %23, 2
  %26 = and i64 %25, 3689348814741910323
  %27 = add nuw nsw i64 %26, %24
  %28 = lshr i64 %27, 4
  %29 = add nuw nsw i64 %28, %27
  %30 = and i64 %29, 1085102592571150095
  %31 = lshr i64 %30, 8
  %32 = add nuw nsw i64 %31, %30
  %33 = lshr i64 %32, 16
  %34 = add nuw nsw i64 %33, %32
  %35 = lshr i64 %34, 32
  %36 = add nuw nsw i64 %35, %34
  %37 = trunc i64 %36 to i32
  %38 = and i32 %37, 255
  br label %Abc_TtCountOnes2.exit.i

Abc_TtCountOnes2.exit.i:                          ; preds = %20, %.lr.ph.i
  %39 = phi i32 [ %38, %20 ], [ 0, %.lr.ph.i ]
  %40 = add nuw nsw i32 %39, %.08.i
  %indvars.iv.next.i = add nuw nsw i64 %indvars.iv.i, 1
  %exitcond.not.i = icmp eq i64 %indvars.iv.next.i, %wide.trip.count.i
  br i1 %exitcond.not.i, label %Abc_TtCountOnesVec.exit.loopexit, label %.lr.ph.i, !llvm.loop !80

Abc_TtCountOnesVec.exit.loopexit:                 ; preds = %Abc_TtCountOnes2.exit.i
  %41 = uitofp nneg i32 %40 to float
  br label %Abc_TtCountOnesVec.exit

Abc_TtCountOnesVec.exit:                          ; preds = %Abc_TtCountOnesVec.exit.loopexit, %.split19
  %.0.lcssa.i = phi float [ 0.000000e+00, %.split19 ], [ %41, %Abc_TtCountOnesVec.exit.loopexit ]
  %42 = shl nsw i32 %.val24, 6
  %43 = sitofp i32 %42 to float
  %44 = fdiv float %.0.lcssa.i, %43
  %45 = fpext float %44 to double
  %46 = call i32 (ptr, ...) @printf(ptr noundef nonnull dereferenceable(1) @.str.21, double noundef %45)
  %47 = getelementptr i8, ptr %14, i64 8
  %.val = load ptr, ptr %47, align 8, !tbaa !59
  %48 = getelementptr i8, ptr %14, i64 4
  %.val22 = load i32, ptr %48, align 4, !tbaa !60
  %49 = icmp sgt i32 %.val22, 0
  br i1 %49, label %.lr.ph.preheader.i26, label %Abc_TtCountOnesVec.exit35

.lr.ph.preheader.i26:                             ; preds = %Abc_TtCountOnesVec.exit
  %wide.trip.count.i27 = zext nneg i32 %.val22 to i64
  br label %.lr.ph.i28

.lr.ph.i28:                                       ; preds = %Abc_TtCountOnes2.exit.i32, %.lr.ph.preheader.i26
  %indvars.iv.i29 = phi i64 [ 0, %.lr.ph.preheader.i26 ], [ %indvars.iv.next.i33, %Abc_TtCountOnes2.exit.i32 ]
  %.08.i30 = phi i32 [ 0, %.lr.ph.preheader.i26 ], [ %72, %Abc_TtCountOnes2.exit.i32 ]
  %50 = getelementptr inbounds nuw i64, ptr %.val, i64 %indvars.iv.i29
  %51 = load i64, ptr %50, align 8, !tbaa !62
  %.not.i.i31 = icmp eq i64 %51, 0
  br i1 %.not.i.i31, label %Abc_TtCountOnes2.exit.i32, label %52

52:                                               ; preds = %.lr.ph.i28
  %53 = lshr i64 %51, 1
  %54 = and i64 %53, 6148914691236517205
  %55 = sub i64 %51, %54
  %56 = and i64 %55, 3689348814741910323
  %57 = lshr i64 %55, 2
  %58 = and i64 %57, 3689348814741910323
  %59 = add nuw nsw i64 %58, %56
  %60 = lshr i64 %59, 4
  %61 = add nuw nsw i64 %60, %59
  %62 = and i64 %61, 1085102592571150095
  %63 = lshr i64 %62, 8
  %64 = add nuw nsw i64 %63, %62
  %65 = lshr i64 %64, 16
  %66 = add nuw nsw i64 %65, %64
  %67 = lshr i64 %66, 32
  %68 = add nuw nsw i64 %67, %66
  %69 = trunc i64 %68 to i32
  %70 = and i32 %69, 255
  br label %Abc_TtCountOnes2.exit.i32

Abc_TtCountOnes2.exit.i32:                        ; preds = %52, %.lr.ph.i28
  %71 = phi i32 [ %70, %52 ], [ 0, %.lr.ph.i28 ]
  %72 = add nuw nsw i32 %71, %.08.i30
  %indvars.iv.next.i33 = add nuw nsw i64 %indvars.iv.i29, 1
  %exitcond.not.i34 = icmp eq i64 %indvars.iv.next.i33, %wide.trip.count.i27
  br i1 %exitcond.not.i34, label %Abc_TtCountOnesVec.exit35.loopexit, label %.lr.ph.i28, !llvm.loop !80

Abc_TtCountOnesVec.exit35.loopexit:               ; preds = %Abc_TtCountOnes2.exit.i32
  %73 = uitofp nneg i32 %72 to float
  br label %Abc_TtCountOnesVec.exit35

Abc_TtCountOnesVec.exit35:                        ; preds = %Abc_TtCountOnesVec.exit35.loopexit, %Abc_TtCountOnesVec.exit
  %.0.lcssa.i25 = phi float [ 0.000000e+00, %Abc_TtCountOnesVec.exit ], [ %73, %Abc_TtCountOnesVec.exit35.loopexit ]
  %74 = shl nsw i32 %.val22, 6
  %75 = sitofp i32 %74 to float
  %76 = fdiv float %.0.lcssa.i25, %75
  %77 = fpext float %76 to double
  %78 = call i32 (ptr, ...) @printf(ptr noundef nonnull dereferenceable(1) @.str.20, double noundef %77)
  %79 = call noalias ptr @fopen(ptr noundef %2, ptr noundef nonnull @.str.40)
  %80 = icmp eq ptr %79, null
  br i1 %80, label %81, label %83

81:                                               ; preds = %Abc_TtCountOnesVec.exit35
  %82 = call i32 (ptr, ...) @printf(ptr noundef nonnull dereferenceable(1) @.str.41, ptr noundef %2)
  br label %Vec_WrdDumpBin.exit

83:                                               ; preds = %Abc_TtCountOnesVec.exit35
  %84 = shl nsw i32 %.val22, 3
  %85 = sext i32 %84 to i64
  %86 = call i64 @fwrite(ptr noundef %.val, i64 noundef 1, i64 noundef %85, ptr noundef nonnull %79)
  %87 = trunc i64 %86 to i32
  %88 = call i32 @fclose(ptr noundef nonnull %79)
  %.not.i = icmp eq i32 %84, %87
  br i1 %.not.i, label %90, label %89

89:                                               ; preds = %83
  %puts.i = call i32 @puts(ptr nonnull dereferenceable(1) @str.1)
  br label %90

90:                                               ; preds = %83, %89
  %91 = call i32 (ptr, ...) @printf(ptr noundef nonnull dereferenceable(1) @.str.43, i32 noundef %.val22, ptr noundef %2)
  br label %Vec_WrdDumpBin.exit

.split:                                           ; preds = %Abc_Clock.exit
  %92 = call noalias ptr @fopen(ptr noundef %2, ptr noundef nonnull @.str.40)
  %93 = icmp eq ptr %92, null
  br i1 %93, label %94, label %96

94:                                               ; preds = %.split
  %95 = call i32 (ptr, ...) @printf(ptr noundef nonnull dereferenceable(1) @.str.41, ptr noundef %2)
  br label %Vec_WrdDumpBin.exit

96:                                               ; preds = %.split
  %97 = getelementptr i8, ptr %14, i64 8
  %.val.i36 = load ptr, ptr %97, align 8, !tbaa !59
  %98 = getelementptr i8, ptr %14, i64 4
  %.val12.i37 = load i32, ptr %98, align 4, !tbaa !60
  %99 = shl nsw i32 %.val12.i37, 3
  %100 = sext i32 %99 to i64
  %101 = call i64 @fwrite(ptr noundef %.val.i36, i64 noundef 1, i64 noundef %100, ptr noundef nonnull %92)
  %102 = trunc i64 %101 to i32
  %103 = call i32 @fclose(ptr noundef nonnull %92)
  %.not.i39 = icmp eq i32 %99, %102
  br i1 %.not.i39, label %Vec_WrdDumpBin.exit, label %104

104:                                              ; preds = %96
  %puts.i40 = call i32 @puts(ptr nonnull dereferenceable(1) @str.1)
  br label %Vec_WrdDumpBin.exit

Vec_WrdDumpBin.exit:                              ; preds = %94, %104, %96, %90, %81
  %105 = getelementptr inbounds nuw i8, ptr %13, i64 8
  %106 = load ptr, ptr %105, align 8, !tbaa !59
  %.not.i42 = icmp eq ptr %106, null
  br i1 %.not.i42, label %Vec_WrdFree.exit, label %107

107:                                              ; preds = %Vec_WrdDumpBin.exit
  call void @free(ptr noundef nonnull %106) #24
  br label %Vec_WrdFree.exit

Vec_WrdFree.exit:                                 ; preds = %Vec_WrdDumpBin.exit, %107
  call void @free(ptr noundef nonnull %13) #24
  %108 = getelementptr inbounds nuw i8, ptr %14, i64 8
  %109 = load ptr, ptr %108, align 8, !tbaa !59
  %.not.i43 = icmp eq ptr %109, null
  br i1 %.not.i43, label %Vec_WrdFree.exit44, label %110

110:                                              ; preds = %Vec_WrdFree.exit
  call void @free(ptr noundef nonnull %109) #24
  br label %Vec_WrdFree.exit44

Vec_WrdFree.exit44:                               ; preds = %Vec_WrdFree.exit, %110
  call void @free(ptr noundef nonnull %14) #24
  br i1 %.not, label %124, label %111

111:                                              ; preds = %Vec_WrdFree.exit44
  call void @llvm.lifetime.start.p0(i64 16, ptr nonnull %5) #24
  %112 = call i32 @clock_gettime(i32 noundef 1, ptr noundef nonnull %5) #24
  %113 = icmp slt i32 %112, 0
  br i1 %113, label %Abc_Clock.exit46, label %114

114:                                              ; preds = %111
  %115 = load i64, ptr %5, align 8, !tbaa !88
  %116 = mul nsw i64 %115, 1000000
  %117 = getelementptr inbounds nuw i8, ptr %5, i64 8
  %118 = load i64, ptr %117, align 8, !tbaa !90
  %119 = sdiv i64 %118, 1000
  %120 = add nsw i64 %119, %116
  br label %Abc_Clock.exit46

Abc_Clock.exit46:                                 ; preds = %111, %114
  %.0.i45 = phi i64 [ %120, %114 ], [ -1, %111 ]
  call void @llvm.lifetime.end.p0(i64 16, ptr nonnull %5) #24
  %121 = add i64 %.0.i45, %.0.i.neg
  call void (i32, ptr, ...) @Abc_Print(i32 poison, ptr noundef nonnull @.str.46, ptr noundef nonnull @.str.22)
  %122 = sitofp i64 %121 to double
  %123 = fdiv double %122, 1.000000e+06
  call void (i32, ptr, ...) @Abc_Print(i32 poison, ptr noundef nonnull @.str.47, double noundef %123)
  br label %124

124:                                              ; preds = %Abc_Clock.exit46, %Vec_WrdFree.exit44
  ret void
}